ARM GAS  C:\Users\badun\AppData\Local\Temp\ccFP6dWp.s 			page 1


   1              		.syntax unified
   2              		.cpu cortex-m3
   3              		.fpu softvfp
   4              		.eabi_attribute 20, 1
   5              		.eabi_attribute 21, 1
   6              		.eabi_attribute 23, 3
   7              		.eabi_attribute 24, 1
   8              		.eabi_attribute 25, 1
   9              		.eabi_attribute 26, 1
  10              		.eabi_attribute 30, 1
  11              		.eabi_attribute 34, 1
  12              		.eabi_attribute 18, 4
  13              		.thumb
  14              		.syntax unified
  15              		.file	"main.c"
  16              		.text
  17              	.Ltext0:
  18              		.cfi_sections	.debug_frame
  19              		.section	.text.timer_handler,"ax",%progbits
  20              		.align	2
  21              		.global	timer_handler
  22              		.thumb
  23              		.thumb_func
  24              		.type	timer_handler, %function
  25              	timer_handler:
  26              	.LFB71:
  27              		.file 1 "main.c"
   1:main.c        **** /* ========================================
   2:main.c        ****  *
   3:main.c        ****  * Copyright YOUR COMPANY, THE YEAR
   4:main.c        ****  * All Rights Reserved
   5:main.c        ****  * UNPUBLISHED, LICENSED SOFTWARE.
   6:main.c        ****  *
   7:main.c        ****  * CONFIDENTIAL AND PROPRIETARY INFORMATION
   8:main.c        ****  * WHICH IS THE PROPERTY OF your company.
   9:main.c        ****  *
  10:main.c        ****  * ========================================
  11:main.c        **** */
  12:main.c        **** #include "project.h"
  13:main.c        **** #include <stdio.h>
  14:main.c        **** #include "math.h"
  15:main.c        **** 
  16:main.c        **** #define USED_EEPROM_SECTOR          (1u)
  17:main.c        **** #define IS_METRIC_BYTE          ((USED_EEPROM_SECTOR * CYDEV_EEPROM_SECTOR_SIZE) + 0x00)
  18:main.c        **** 
  19:main.c        **** 
  20:main.c        **** int a1 = 0b1110;
  21:main.c        **** int a2 = 0b1101;
  22:main.c        **** int a3 = 0b1011;
  23:main.c        **** int a4 = 0b0111;
  24:main.c        **** int b1, b2, b3 ,b4;
  25:main.c        **** int int2bin(int i);
  26:main.c        **** int group_no = 135;
  27:main.c        **** int dist;
  28:main.c        **** uint8 adcResult;
  29:main.c        **** int adcVolts;
  30:main.c        **** char tmpStr[30];
ARM GAS  C:\Users\badun\AppData\Local\Temp\ccFP6dWp.s 			page 2


  31:main.c        **** char tmpStr1[30];
  32:main.c        **** uint16 counter1;
  33:main.c        **** uint16 counter2;
  34:main.c        **** 
  35:main.c        **** void sendPulse() {
  36:main.c        ****     //send 10x 40kHz pulse
  37:main.c        ****     
  38:main.c        ****     Control_Reg_3_Write(1);
  39:main.c        ****     Control_Reg_3_Write(0);
  40:main.c        ****     
  41:main.c        ****     uint8 status = Timer_1_ReadStatusRegister();
  42:main.c        ****     Timer_Reset_Write(1);
  43:main.c        ****     Timer_Reset_Write(0);
  44:main.c        ****     
  45:main.c        ****     //counter1 = Timer_1_ReadCapture();
  46:main.c        ****     //sprintf(tmpStr, " counter1 %d  \n", counter1); 	 	            		//Create text string
  47:main.c        ****     //UART_1_PutString(tmpStr);                  		 	    	//Print string to console
  48:main.c        ****             
  49:main.c        **** 
  50:main.c        **** }
  51:main.c        **** 
  52:main.c        **** void display_unit(){
  53:main.c        ****     if(EEPROM_1_ReadByte(IS_METRIC_BYTE)){
  54:main.c        ****         //display unit: cm
  55:main.c        ****         Control_Reg_2_Write(a4);
  56:main.c        ****         Control_Reg_1_Write(0b10100111);
  57:main.c        ****         CyDelay(1000);
  58:main.c        ****     }
  59:main.c        ****     else {
  60:main.c        ****         //display unit: inch
  61:main.c        ****         Control_Reg_2_Write(a4);
  62:main.c        ****         Control_Reg_1_Write(0b11111001);
  63:main.c        ****         CyDelay(1000);
  64:main.c        ****     }
  65:main.c        **** }
  66:main.c        **** void display(int a, int n){
  67:main.c        ****     //Display group number
  68:main.c        **** 
  69:main.c        ****     for(int x=0;x<250;x++){
  70:main.c        ****         Control_Reg_2_Write(a1);
  71:main.c        ****         b1 = int2bin((a%10000 - a%1000)/1000);
  72:main.c        ****         Control_Reg_1_Write(b1);
  73:main.c        ****         CyDelay(1);
  74:main.c        ****         Control_Reg_2_Write(a2);
  75:main.c        ****         b2 = int2bin((a%1000 - a%100)/100);
  76:main.c        ****         if(n == 1) b2 += 0b10000000;
  77:main.c        ****         Control_Reg_1_Write(b2);
  78:main.c        ****         CyDelay(1);
  79:main.c        ****         Control_Reg_2_Write(a3);
  80:main.c        ****         b3 = int2bin((a%100 - a%10)/10);
  81:main.c        ****         Control_Reg_1_Write(b3);
  82:main.c        ****         CyDelay(1);
  83:main.c        ****         Control_Reg_2_Write(a4);
  84:main.c        ****         b4 = int2bin(a%10);
  85:main.c        ****         Control_Reg_1_Write(b4);
  86:main.c        ****         CyDelay(1); 
  87:main.c        ****     }
ARM GAS  C:\Users\badun\AppData\Local\Temp\ccFP6dWp.s 			page 3


  88:main.c        ****     Control_Reg_2_Write(0b1111);
  89:main.c        ****     
  90:main.c        **** }
  91:main.c        **** void startup(){
  92:main.c        ****     Control_Reg_2_Write(a1);
  93:main.c        ****     Control_Reg_1_Write(0b00000000);
  94:main.c        ****     CyDelay(1000);
  95:main.c        ****     Control_Reg_2_Write(a2);
  96:main.c        ****     Control_Reg_1_Write(0b00000000);
  97:main.c        ****     CyDelay(1000);
  98:main.c        ****     Control_Reg_2_Write(a3);
  99:main.c        ****     Control_Reg_1_Write(0b00000000);
 100:main.c        ****     CyDelay(1000);
 101:main.c        ****     Control_Reg_2_Write(a4);
 102:main.c        ****     Control_Reg_1_Write(0b00000000);
 103:main.c        ****     CyDelay(1000);
 104:main.c        ****     
 105:main.c        ****     //Display group number
 106:main.c        ****     display(group_no,0);
 107:main.c        ****     
 108:main.c        ****     display_unit();
 109:main.c        ****     
 110:main.c        **** }
 111:main.c        **** 
 112:main.c        **** void sleepmode(){
 113:main.c        ****     // sleep mode
 114:main.c        ****     Control_Reg_2_Write(a4);
 115:main.c        ****     Control_Reg_1_Write(0b11111111);
 116:main.c        ****     CyDelay(500);
 117:main.c        ****     Control_Reg_1_Write(0b01111111);
 118:main.c        ****     CyDelay(500);
 119:main.c        ****         
 120:main.c        ****         
 121:main.c        **** }
 122:main.c        **** 
 123:main.c        **** void beep() {
 124:main.c        ****     beeperpin_Write(0);
 125:main.c        ****     CyDelay(200);
 126:main.c        ****     beeperpin_Write(1);
 127:main.c        ****     return;
 128:main.c        **** }
 129:main.c        **** 
 130:main.c        **** float cm2Inch(float value) {
 131:main.c        ****     //1 cm = 0.393700787 inches
 132:main.c        ****     return (value*0.3937);
 133:main.c        **** }
 134:main.c        **** 
 135:main.c        **** uint16 counter;
 136:main.c        **** CY_ISR(timer_handler){
  28              		.loc 1 136 0
  29              		.cfi_startproc
  30              		@ args = 0, pretend = 0, frame = 0
  31              		@ frame_needed = 0, uses_anonymous_args = 0
  32 0000 10B5     		push	{r4, lr}
  33              		.cfi_def_cfa_offset 8
  34              		.cfi_offset 4, -8
  35              		.cfi_offset 14, -4
ARM GAS  C:\Users\badun\AppData\Local\Temp\ccFP6dWp.s 			page 4


 137:main.c        ****     
 138:main.c        ****     counter2 = Timer_1_ReadPeriod() - Timer_1_ReadCapture();
  36              		.loc 1 138 0
  37 0002 FFF7FEFF 		bl	Timer_1_ReadPeriod
  38              	.LVL0:
  39 0006 0446     		mov	r4, r0
  40 0008 FFF7FEFF 		bl	Timer_1_ReadCapture
  41              	.LVL1:
  42 000c 201A     		subs	r0, r4, r0
  43 000e 014B     		ldr	r3, .L3
  44 0010 1880     		strh	r0, [r3]	@ movhi
  45 0012 10BD     		pop	{r4, pc}
  46              	.L4:
  47              		.align	2
  48              	.L3:
  49 0014 00000000 		.word	counter2
  50              		.cfi_endproc
  51              	.LFE71:
  52              		.size	timer_handler, .-timer_handler
  53              		.section	.text.sendPulse,"ax",%progbits
  54              		.align	2
  55              		.global	sendPulse
  56              		.thumb
  57              		.thumb_func
  58              		.type	sendPulse, %function
  59              	sendPulse:
  60              	.LFB64:
  35:main.c        ****     //send 10x 40kHz pulse
  61              		.loc 1 35 0
  62              		.cfi_startproc
  63              		@ args = 0, pretend = 0, frame = 0
  64              		@ frame_needed = 0, uses_anonymous_args = 0
  65 0000 08B5     		push	{r3, lr}
  66              		.cfi_def_cfa_offset 8
  67              		.cfi_offset 3, -8
  68              		.cfi_offset 14, -4
  38:main.c        ****     Control_Reg_3_Write(0);
  69              		.loc 1 38 0
  70 0002 0120     		movs	r0, #1
  71 0004 FFF7FEFF 		bl	Control_Reg_3_Write
  72              	.LVL2:
  39:main.c        ****     
  73              		.loc 1 39 0
  74 0008 0020     		movs	r0, #0
  75 000a FFF7FEFF 		bl	Control_Reg_3_Write
  76              	.LVL3:
  41:main.c        ****     Timer_Reset_Write(1);
  77              		.loc 1 41 0
  78 000e FFF7FEFF 		bl	Timer_1_ReadStatusRegister
  79              	.LVL4:
  42:main.c        ****     Timer_Reset_Write(0);
  80              		.loc 1 42 0
  81 0012 0120     		movs	r0, #1
  82 0014 FFF7FEFF 		bl	Timer_Reset_Write
  83              	.LVL5:
  43:main.c        ****     
  84              		.loc 1 43 0
ARM GAS  C:\Users\badun\AppData\Local\Temp\ccFP6dWp.s 			page 5


  85 0018 0020     		movs	r0, #0
  86 001a FFF7FEFF 		bl	Timer_Reset_Write
  87              	.LVL6:
  88 001e 08BD     		pop	{r3, pc}
  89              		.cfi_endproc
  90              	.LFE64:
  91              		.size	sendPulse, .-sendPulse
  92              		.section	.text.display_unit,"ax",%progbits
  93              		.align	2
  94              		.global	display_unit
  95              		.thumb
  96              		.thumb_func
  97              		.type	display_unit, %function
  98              	display_unit:
  99              	.LFB65:
  52:main.c        ****     if(EEPROM_1_ReadByte(IS_METRIC_BYTE)){
 100              		.loc 1 52 0
 101              		.cfi_startproc
 102              		@ args = 0, pretend = 0, frame = 0
 103              		@ frame_needed = 0, uses_anonymous_args = 0
 104 0000 08B5     		push	{r3, lr}
 105              		.cfi_def_cfa_offset 8
 106              		.cfi_offset 3, -8
 107              		.cfi_offset 14, -4
  53:main.c        ****         //display unit: cm
 108              		.loc 1 53 0
 109 0002 4FF48060 		mov	r0, #1024
 110 0006 FFF7FEFF 		bl	EEPROM_1_ReadByte
 111              	.LVL7:
 112 000a 58B1     		cbz	r0, .L8
  55:main.c        ****         Control_Reg_1_Write(0b10100111);
 113              		.loc 1 55 0
 114 000c 0B4B     		ldr	r3, .L11
 115 000e 1878     		ldrb	r0, [r3]	@ zero_extendqisi2
 116 0010 FFF7FEFF 		bl	Control_Reg_2_Write
 117              	.LVL8:
  56:main.c        ****         CyDelay(1000);
 118              		.loc 1 56 0
 119 0014 A720     		movs	r0, #167
 120 0016 FFF7FEFF 		bl	Control_Reg_1_Write
 121              	.LVL9:
  57:main.c        ****     }
 122              		.loc 1 57 0
 123 001a 4FF47A70 		mov	r0, #1000
 124 001e FFF7FEFF 		bl	CyDelay
 125              	.LVL10:
 126 0022 08BD     		pop	{r3, pc}
 127              	.L8:
  61:main.c        ****         Control_Reg_1_Write(0b11111001);
 128              		.loc 1 61 0
 129 0024 054B     		ldr	r3, .L11
 130 0026 1878     		ldrb	r0, [r3]	@ zero_extendqisi2
 131 0028 FFF7FEFF 		bl	Control_Reg_2_Write
 132              	.LVL11:
  62:main.c        ****         CyDelay(1000);
 133              		.loc 1 62 0
 134 002c F920     		movs	r0, #249
ARM GAS  C:\Users\badun\AppData\Local\Temp\ccFP6dWp.s 			page 6


 135 002e FFF7FEFF 		bl	Control_Reg_1_Write
 136              	.LVL12:
  63:main.c        ****     }
 137              		.loc 1 63 0
 138 0032 4FF47A70 		mov	r0, #1000
 139 0036 FFF7FEFF 		bl	CyDelay
 140              	.LVL13:
 141 003a 08BD     		pop	{r3, pc}
 142              	.L12:
 143              		.align	2
 144              	.L11:
 145 003c 00000000 		.word	.LANCHOR0
 146              		.cfi_endproc
 147              	.LFE65:
 148              		.size	display_unit, .-display_unit
 149              		.section	.text.sleepmode,"ax",%progbits
 150              		.align	2
 151              		.global	sleepmode
 152              		.thumb
 153              		.thumb_func
 154              		.type	sleepmode, %function
 155              	sleepmode:
 156              	.LFB68:
 112:main.c        ****     // sleep mode
 157              		.loc 1 112 0
 158              		.cfi_startproc
 159              		@ args = 0, pretend = 0, frame = 0
 160              		@ frame_needed = 0, uses_anonymous_args = 0
 161 0000 08B5     		push	{r3, lr}
 162              		.cfi_def_cfa_offset 8
 163              		.cfi_offset 3, -8
 164              		.cfi_offset 14, -4
 114:main.c        ****     Control_Reg_1_Write(0b11111111);
 165              		.loc 1 114 0
 166 0002 094B     		ldr	r3, .L15
 167 0004 1878     		ldrb	r0, [r3]	@ zero_extendqisi2
 168 0006 FFF7FEFF 		bl	Control_Reg_2_Write
 169              	.LVL14:
 115:main.c        ****     CyDelay(500);
 170              		.loc 1 115 0
 171 000a FF20     		movs	r0, #255
 172 000c FFF7FEFF 		bl	Control_Reg_1_Write
 173              	.LVL15:
 116:main.c        ****     Control_Reg_1_Write(0b01111111);
 174              		.loc 1 116 0
 175 0010 4FF4FA70 		mov	r0, #500
 176 0014 FFF7FEFF 		bl	CyDelay
 177              	.LVL16:
 117:main.c        ****     CyDelay(500);
 178              		.loc 1 117 0
 179 0018 7F20     		movs	r0, #127
 180 001a FFF7FEFF 		bl	Control_Reg_1_Write
 181              	.LVL17:
 118:main.c        ****         
 182              		.loc 1 118 0
 183 001e 4FF4FA70 		mov	r0, #500
 184 0022 FFF7FEFF 		bl	CyDelay
ARM GAS  C:\Users\badun\AppData\Local\Temp\ccFP6dWp.s 			page 7


 185              	.LVL18:
 186 0026 08BD     		pop	{r3, pc}
 187              	.L16:
 188              		.align	2
 189              	.L15:
 190 0028 00000000 		.word	.LANCHOR0
 191              		.cfi_endproc
 192              	.LFE68:
 193              		.size	sleepmode, .-sleepmode
 194              		.section	.text.beep,"ax",%progbits
 195              		.align	2
 196              		.global	beep
 197              		.thumb
 198              		.thumb_func
 199              		.type	beep, %function
 200              	beep:
 201              	.LFB69:
 123:main.c        ****     beeperpin_Write(0);
 202              		.loc 1 123 0
 203              		.cfi_startproc
 204              		@ args = 0, pretend = 0, frame = 0
 205              		@ frame_needed = 0, uses_anonymous_args = 0
 206 0000 08B5     		push	{r3, lr}
 207              		.cfi_def_cfa_offset 8
 208              		.cfi_offset 3, -8
 209              		.cfi_offset 14, -4
 124:main.c        ****     CyDelay(200);
 210              		.loc 1 124 0
 211 0002 0020     		movs	r0, #0
 212 0004 FFF7FEFF 		bl	beeperpin_Write
 213              	.LVL19:
 125:main.c        ****     beeperpin_Write(1);
 214              		.loc 1 125 0
 215 0008 C820     		movs	r0, #200
 216 000a FFF7FEFF 		bl	CyDelay
 217              	.LVL20:
 126:main.c        ****     return;
 218              		.loc 1 126 0
 219 000e 0120     		movs	r0, #1
 220 0010 FFF7FEFF 		bl	beeperpin_Write
 221              	.LVL21:
 222 0014 08BD     		pop	{r3, pc}
 223              		.cfi_endproc
 224              	.LFE69:
 225              		.size	beep, .-beep
 226 0016 00BF     		.section	.text.convertunitisr,"ax",%progbits
 227              		.align	2
 228              		.global	convertunitisr
 229              		.thumb
 230              		.thumb_func
 231              		.type	convertunitisr, %function
 232              	convertunitisr:
 233              	.LFB74:
 139:main.c        ****                 		 	    	
 140:main.c        ****     
 141:main.c        ****     
 142:main.c        **** }
ARM GAS  C:\Users\badun\AppData\Local\Temp\ccFP6dWp.s 			page 8


 143:main.c        **** CY_ISR(measurehandlerisr)                  //This is the ISR
 144:main.c        **** {
 145:main.c        ****     
 146:main.c        ****     beep();
 147:main.c        ****     
 148:main.c        ****     sendPulse();
 149:main.c        ****     if(EEPROM_1_ReadByte(IS_METRIC_BYTE)){        
 150:main.c        ****         dist = counter2*34 ;
 151:main.c        ****         
 152:main.c        ****     }
 153:main.c        ****     else{
 154:main.c        ****         dist = counter2*34;
 155:main.c        ****         dist = cm2Inch(dist);
 156:main.c        ****     }
 157:main.c        ****     display(dist,1);
 158:main.c        ****         
 159:main.c        ****     sprintf(tmpStr1, " dist %d  \n", dist); 	 //Print string to console	            		//Create text
 160:main.c        ****     UART_1_PutString(tmpStr1); 
 161:main.c        **** }
 162:main.c        **** CY_ISR(startupisr)                  //This is the ISR to display information
 163:main.c        **** {
 164:main.c        ****     beep();
 165:main.c        ****     startup();
 166:main.c        **** }
 167:main.c        **** CY_ISR(convertunitisr)                  //This is the ISR for converting unit
 168:main.c        **** {
 234              		.loc 1 168 0
 235              		.cfi_startproc
 236              		@ args = 0, pretend = 0, frame = 0
 237              		@ frame_needed = 0, uses_anonymous_args = 0
 238 0000 08B5     		push	{r3, lr}
 239              		.cfi_def_cfa_offset 8
 240              		.cfi_offset 3, -8
 241              		.cfi_offset 14, -4
 169:main.c        ****     beep();
 242              		.loc 1 169 0
 243 0002 FFF7FEFF 		bl	beep
 244              	.LVL22:
 170:main.c        ****     EEPROM_1_WriteByte(~EEPROM_1_ReadByte(IS_METRIC_BYTE),IS_METRIC_BYTE);
 245              		.loc 1 170 0
 246 0006 4FF48060 		mov	r0, #1024
 247 000a FFF7FEFF 		bl	EEPROM_1_ReadByte
 248              	.LVL23:
 249 000e C043     		mvns	r0, r0
 250 0010 4FF48061 		mov	r1, #1024
 251 0014 C0B2     		uxtb	r0, r0
 252 0016 FFF7FEFF 		bl	EEPROM_1_WriteByte
 253              	.LVL24:
 171:main.c        ****     
 172:main.c        ****     display_unit();
 254              		.loc 1 172 0
 255 001a FFF7FEFF 		bl	display_unit
 256              	.LVL25:
 257 001e 08BD     		pop	{r3, pc}
 258              		.cfi_endproc
 259              	.LFE74:
 260              		.size	convertunitisr, .-convertunitisr
ARM GAS  C:\Users\badun\AppData\Local\Temp\ccFP6dWp.s 			page 9


 261              		.global	__aeabi_f2d
 262              		.global	__aeabi_dmul
 263              		.global	__aeabi_d2f
 264              		.section	.text.cm2Inch,"ax",%progbits
 265              		.align	2
 266              		.global	cm2Inch
 267              		.thumb
 268              		.thumb_func
 269              		.type	cm2Inch, %function
 270              	cm2Inch:
 271              	.LFB70:
 130:main.c        ****     //1 cm = 0.393700787 inches
 272              		.loc 1 130 0
 273              		.cfi_startproc
 274              		@ args = 0, pretend = 0, frame = 0
 275              		@ frame_needed = 0, uses_anonymous_args = 0
 276              	.LVL26:
 277 0000 08B5     		push	{r3, lr}
 278              		.cfi_def_cfa_offset 8
 279              		.cfi_offset 3, -8
 280              		.cfi_offset 14, -4
 132:main.c        **** }
 281              		.loc 1 132 0
 282 0002 FFF7FEFF 		bl	__aeabi_f2d
 283              	.LVL27:
 284 0006 04A3     		adr	r3, .L23
 285 0008 D3E90023 		ldrd	r2, [r3]
 286 000c FFF7FEFF 		bl	__aeabi_dmul
 287              	.LVL28:
 288 0010 FFF7FEFF 		bl	__aeabi_d2f
 289              	.LVL29:
 133:main.c        **** 
 290              		.loc 1 133 0
 291 0014 08BD     		pop	{r3, pc}
 292              	.L24:
 293 0016 00BF     		.align	3
 294              	.L23:
 295 0018 51DA1B7C 		.word	2082200145
 296 001c 6132D93F 		.word	1071198817
 297              		.cfi_endproc
 298              	.LFE70:
 299              		.size	cm2Inch, .-cm2Inch
 300              		.section	.text.int2bin,"ax",%progbits
 301              		.align	2
 302              		.global	int2bin
 303              		.thumb
 304              		.thumb_func
 305              		.type	int2bin, %function
 306              	int2bin:
 307              	.LFB78:
 173:main.c        **** }
 174:main.c        **** CY_ISR(increasegroupnoisr)                  //This is the ISR for changing group number
 175:main.c        **** {
 176:main.c        ****     beep();
 177:main.c        ****     group_no++;
 178:main.c        ****     display(group_no,0);
 179:main.c        **** }
ARM GAS  C:\Users\badun\AppData\Local\Temp\ccFP6dWp.s 			page 10


 180:main.c        **** CY_ISR(decreasegroupnoisr)                  //This is the ISR
 181:main.c        **** {
 182:main.c        ****     beep();
 183:main.c        ****     group_no = group_no -1;
 184:main.c        ****     display(group_no,0);
 185:main.c        **** }
 186:main.c        **** int main(void)
 187:main.c        **** {
 188:main.c        ****     CyGlobalIntEnable; /* Enable global interrupts. */
 189:main.c        ****      /* Place your initialization/startup code here (e.g. MyInst_Start()) */
 190:main.c        ****     isr_1_ClearPending();
 191:main.c        ****     isr_1_StartEx(timer_handler);
 192:main.c        ****     isr_2_ClearPending();
 193:main.c        ****     isr_2_StartEx(measurehandlerisr);
 194:main.c        ****     isr_3_ClearPending();
 195:main.c        ****     isr_3_StartEx(startupisr);
 196:main.c        ****     isr_4_ClearPending();
 197:main.c        ****     isr_4_StartEx(convertunitisr);
 198:main.c        ****     isr_5_ClearPending();
 199:main.c        ****     isr_5_StartEx(increasegroupnoisr);
 200:main.c        ****     isr_6_ClearPending();
 201:main.c        ****     isr_6_StartEx(decreasegroupnoisr);
 202:main.c        ****     
 203:main.c        ****     timer_clock_Start();    // Start timer clock
 204:main.c        ****     Timer_1_Start();        // Start timer
 205:main.c        ****     Clock_2_Start();        // Start debouncer clock
 206:main.c        ****     Opamp_1_Start();        // Start Opamp
 207:main.c        ****     PGA_1_Start();      
 208:main.c        ****     Comp_1_Start(); 
 209:main.c        ****     Clock_1_Start();        // Produce 40kHz pulse
 210:main.c        ****     Count7_1_Start();
 211:main.c        ****     UART_1_Start();			 //Start the UART
 212:main.c        ****     EEPROM_1_Start();
 213:main.c        ****     
 214:main.c        ****     
 215:main.c        ****     
 216:main.c        ****     
 217:main.c        ****     
 218:main.c        ****     /* Place your initialization/startup code here (e.g. MyInst_Start()) */
 219:main.c        ****     startup();
 220:main.c        ****     
 221:main.c        ****     for(;;)
 222:main.c        ****     {
 223:main.c        ****         
 224:main.c        ****         sleepmode();
 225:main.c        ****         
 226:main.c        ****         
 227:main.c        ****     }
 228:main.c        **** }
 229:main.c        **** 
 230:main.c        **** int int2bin(int i){
 308              		.loc 1 230 0
 309              		.cfi_startproc
 310              		@ args = 0, pretend = 0, frame = 0
 311              		@ frame_needed = 0, uses_anonymous_args = 0
 312              		@ link register save eliminated.
 313              	.LVL30:
ARM GAS  C:\Users\badun\AppData\Local\Temp\ccFP6dWp.s 			page 11


 231:main.c        ****     int b;
 232:main.c        ****     switch(i){
 314              		.loc 1 232 0
 315 0000 0928     		cmp	r0, #9
 316 0002 19D8     		bhi	.L27
 317 0004 DFE800F0 		tbb	[pc, r0]
 318              	.L28:
 319 0008 17       		.byte	(.L38-.L28)/2
 320 0009 05       		.byte	(.L29-.L28)/2
 321 000a 07       		.byte	(.L30-.L28)/2
 322 000b 09       		.byte	(.L31-.L28)/2
 323 000c 0B       		.byte	(.L32-.L28)/2
 324 000d 0D       		.byte	(.L33-.L28)/2
 325 000e 0F       		.byte	(.L34-.L28)/2
 326 000f 11       		.byte	(.L35-.L28)/2
 327 0010 13       		.byte	(.L36-.L28)/2
 328 0011 15       		.byte	(.L37-.L28)/2
 329              		.p2align 1
 330              	.L29:
 331              	.LVL31:
 233:main.c        ****         case 0: {
 234:main.c        ****             b= 0b11000000;
 235:main.c        ****             break;
 236:main.c        ****         }
 237:main.c        ****         case 1: {
 238:main.c        ****             b= 0b11111001;
 332              		.loc 1 238 0
 333 0012 F923     		movs	r3, #249
 239:main.c        ****             break;
 334              		.loc 1 239 0
 335 0014 10E0     		b	.L27
 336              	.LVL32:
 337              	.L30:
 240:main.c        ****         }
 241:main.c        ****         case 2: {
 242:main.c        ****             b= 0b10100100;
 338              		.loc 1 242 0
 339 0016 A423     		movs	r3, #164
 243:main.c        ****             break;
 340              		.loc 1 243 0
 341 0018 0EE0     		b	.L27
 342              	.LVL33:
 343              	.L31:
 244:main.c        ****         }
 245:main.c        ****         case 3: {
 246:main.c        ****             b= 0b10110000;
 344              		.loc 1 246 0
 345 001a B023     		movs	r3, #176
 247:main.c        ****             break;
 346              		.loc 1 247 0
 347 001c 0CE0     		b	.L27
 348              	.LVL34:
 349              	.L32:
 248:main.c        ****         }
 249:main.c        ****         case 4: {
 250:main.c        ****             b = 0b10011001;
 350              		.loc 1 250 0
ARM GAS  C:\Users\badun\AppData\Local\Temp\ccFP6dWp.s 			page 12


 351 001e 9923     		movs	r3, #153
 251:main.c        ****             break;
 352              		.loc 1 251 0
 353 0020 0AE0     		b	.L27
 354              	.LVL35:
 355              	.L33:
 252:main.c        ****         }
 253:main.c        ****         case 5: {
 254:main.c        ****             b= 0b10010010;
 356              		.loc 1 254 0
 357 0022 9223     		movs	r3, #146
 255:main.c        ****             break;
 358              		.loc 1 255 0
 359 0024 08E0     		b	.L27
 360              	.LVL36:
 361              	.L34:
 256:main.c        ****         }
 257:main.c        ****         case 6: {
 258:main.c        ****             b= 0b10000010;
 362              		.loc 1 258 0
 363 0026 8223     		movs	r3, #130
 259:main.c        ****             break;
 364              		.loc 1 259 0
 365 0028 06E0     		b	.L27
 366              	.LVL37:
 367              	.L35:
 260:main.c        ****         }
 261:main.c        ****         case 7: {
 262:main.c        ****             b = 0b11111000;
 368              		.loc 1 262 0
 369 002a F823     		movs	r3, #248
 263:main.c        ****             break;
 370              		.loc 1 263 0
 371 002c 04E0     		b	.L27
 372              	.LVL38:
 373              	.L36:
 264:main.c        ****         }
 265:main.c        ****         case 8: {
 266:main.c        ****             b = 0b10000000;
 374              		.loc 1 266 0
 375 002e 8023     		movs	r3, #128
 267:main.c        ****             break;
 376              		.loc 1 267 0
 377 0030 02E0     		b	.L27
 378              	.LVL39:
 379              	.L37:
 268:main.c        ****         }
 269:main.c        ****         case 9: {
 270:main.c        ****             b = 0b10010000;
 380              		.loc 1 270 0
 381 0032 9023     		movs	r3, #144
 271:main.c        ****             break;
 382              		.loc 1 271 0
 383 0034 00E0     		b	.L27
 384              	.LVL40:
 385              	.L38:
 234:main.c        ****             break;
ARM GAS  C:\Users\badun\AppData\Local\Temp\ccFP6dWp.s 			page 13


 386              		.loc 1 234 0
 387 0036 C023     		movs	r3, #192
 388              	.L27:
 389              	.LVL41:
 272:main.c        ****         }
 273:main.c        ****     }
 274:main.c        ****     return b;
 275:main.c        **** }
 390              		.loc 1 275 0
 391 0038 1846     		mov	r0, r3
 392              	.LVL42:
 393 003a 7047     		bx	lr
 394              		.cfi_endproc
 395              	.LFE78:
 396              		.size	int2bin, .-int2bin
 397              		.section	.text.display,"ax",%progbits
 398              		.align	2
 399              		.global	display
 400              		.thumb
 401              		.thumb_func
 402              		.type	display, %function
 403              	display:
 404              	.LFB66:
  66:main.c        ****     //Display group number
 405              		.loc 1 66 0
 406              		.cfi_startproc
 407              		@ args = 0, pretend = 0, frame = 0
 408              		@ frame_needed = 0, uses_anonymous_args = 0
 409              	.LVL43:
 410 0000 2DE9F843 		push	{r3, r4, r5, r6, r7, r8, r9, lr}
 411              		.cfi_def_cfa_offset 32
 412              		.cfi_offset 3, -32
 413              		.cfi_offset 4, -28
 414              		.cfi_offset 5, -24
 415              		.cfi_offset 6, -20
 416              		.cfi_offset 7, -16
 417              		.cfi_offset 8, -12
 418              		.cfi_offset 9, -8
 419              		.cfi_offset 14, -4
 420 0004 0546     		mov	r5, r0
 421 0006 8946     		mov	r9, r1
 422              	.LVL44:
 423              	.LBB2:
  69:main.c        ****         Control_Reg_2_Write(a1);
 424              		.loc 1 69 0
 425 0008 0027     		movs	r7, #0
 426 000a 7AE0     		b	.L40
 427              	.LVL45:
 428              	.L42:
  70:main.c        ****         b1 = int2bin((a%10000 - a%1000)/1000);
 429              		.loc 1 70 0
 430 000c DFF82081 		ldr	r8, .L44+32
 431 0010 98F80400 		ldrb	r0, [r8, #4]	@ zero_extendqisi2
 432 0014 FFF7FEFF 		bl	Control_Reg_2_Write
 433              	.LVL46:
  71:main.c        ****         Control_Reg_1_Write(b1);
 434              		.loc 1 71 0
ARM GAS  C:\Users\badun\AppData\Local\Temp\ccFP6dWp.s 			page 14


 435 0018 3D4B     		ldr	r3, .L44
 436 001a 83FB0523 		smull	r2, r3, r3, r5
 437 001e EE17     		asrs	r6, r5, #31
 438 0020 C6EB2333 		rsb	r3, r6, r3, asr #12
 439 0024 42F21072 		movw	r2, #10000
 440 0028 02FB1353 		mls	r3, r2, r3, r5
 441 002c 3948     		ldr	r0, .L44+4
 442 002e 80FB0524 		smull	r2, r4, r0, r5
 443 0032 C6EBA414 		rsb	r4, r6, r4, asr #6
 444 0036 4FF47A72 		mov	r2, #1000
 445 003a 02FB1454 		mls	r4, r2, r4, r5
 446 003e 1B1B     		subs	r3, r3, r4
 447 0040 80FB0320 		smull	r2, r0, r0, r3
 448 0044 DB17     		asrs	r3, r3, #31
 449 0046 C3EBA010 		rsb	r0, r3, r0, asr #6
 450 004a FFF7FEFF 		bl	int2bin
 451              	.LVL47:
 452 004e 324B     		ldr	r3, .L44+8
 453 0050 1860     		str	r0, [r3]
  72:main.c        ****         CyDelay(1);
 454              		.loc 1 72 0
 455 0052 C0B2     		uxtb	r0, r0
 456 0054 FFF7FEFF 		bl	Control_Reg_1_Write
 457              	.LVL48:
  73:main.c        ****         Control_Reg_2_Write(a2);
 458              		.loc 1 73 0
 459 0058 0120     		movs	r0, #1
 460 005a FFF7FEFF 		bl	CyDelay
 461              	.LVL49:
  74:main.c        ****         b2 = int2bin((a%1000 - a%100)/100);
 462              		.loc 1 74 0
 463 005e 98F80800 		ldrb	r0, [r8, #8]	@ zero_extendqisi2
 464 0062 FFF7FEFF 		bl	Control_Reg_2_Write
 465              	.LVL50:
  75:main.c        ****         if(n == 1) b2 += 0b10000000;
 466              		.loc 1 75 0
 467 0066 2D48     		ldr	r0, .L44+12
 468 0068 80FB0523 		smull	r2, r3, r0, r5
 469 006c C6EB6316 		rsb	r6, r6, r3, asr #5
 470 0070 6423     		movs	r3, #100
 471 0072 03FB1656 		mls	r6, r3, r6, r5
 472 0076 A41B     		subs	r4, r4, r6
 473 0078 80FB0430 		smull	r3, r0, r0, r4
 474 007c E417     		asrs	r4, r4, #31
 475 007e C4EB6010 		rsb	r0, r4, r0, asr #5
 476 0082 FFF7FEFF 		bl	int2bin
 477              	.LVL51:
 478 0086 264B     		ldr	r3, .L44+16
 479 0088 1860     		str	r0, [r3]
  76:main.c        ****         Control_Reg_1_Write(b2);
 480              		.loc 1 76 0
 481 008a B9F1010F 		cmp	r9, #1
 482 008e 01D1     		bne	.L41
  76:main.c        ****         Control_Reg_1_Write(b2);
 483              		.loc 1 76 0 is_stmt 0 discriminator 1
 484 0090 8030     		adds	r0, r0, #128
 485 0092 1860     		str	r0, [r3]
ARM GAS  C:\Users\badun\AppData\Local\Temp\ccFP6dWp.s 			page 15


 486              	.L41:
  77:main.c        ****         CyDelay(1);
 487              		.loc 1 77 0 is_stmt 1 discriminator 2
 488 0094 224B     		ldr	r3, .L44+16
 489 0096 1878     		ldrb	r0, [r3]	@ zero_extendqisi2
 490 0098 FFF7FEFF 		bl	Control_Reg_1_Write
 491              	.LVL52:
  78:main.c        ****         Control_Reg_2_Write(a3);
 492              		.loc 1 78 0 discriminator 2
 493 009c 0120     		movs	r0, #1
 494 009e FFF7FEFF 		bl	CyDelay
 495              	.LVL53:
  79:main.c        ****         b3 = int2bin((a%100 - a%10)/10);
 496              		.loc 1 79 0 discriminator 2
 497 00a2 DFF88C80 		ldr	r8, .L44+32
 498 00a6 98F80C00 		ldrb	r0, [r8, #12]	@ zero_extendqisi2
 499 00aa FFF7FEFF 		bl	Control_Reg_2_Write
 500              	.LVL54:
  80:main.c        ****         Control_Reg_1_Write(b3);
 501              		.loc 1 80 0 discriminator 2
 502 00ae 1D48     		ldr	r0, .L44+20
 503 00b0 80FB0534 		smull	r3, r4, r0, r5
 504 00b4 EB17     		asrs	r3, r5, #31
 505 00b6 C3EBA404 		rsb	r4, r3, r4, asr #2
 506 00ba 04EB8404 		add	r4, r4, r4, lsl #2
 507 00be 6300     		lsls	r3, r4, #1
 508 00c0 EC1A     		subs	r4, r5, r3
 509 00c2 361B     		subs	r6, r6, r4
 510 00c4 80FB0630 		smull	r3, r0, r0, r6
 511 00c8 F617     		asrs	r6, r6, #31
 512 00ca C6EBA000 		rsb	r0, r6, r0, asr #2
 513 00ce FFF7FEFF 		bl	int2bin
 514              	.LVL55:
 515 00d2 154B     		ldr	r3, .L44+24
 516 00d4 1860     		str	r0, [r3]
  81:main.c        ****         CyDelay(1);
 517              		.loc 1 81 0 discriminator 2
 518 00d6 C0B2     		uxtb	r0, r0
 519 00d8 FFF7FEFF 		bl	Control_Reg_1_Write
 520              	.LVL56:
  82:main.c        ****         Control_Reg_2_Write(a4);
 521              		.loc 1 82 0 discriminator 2
 522 00dc 0120     		movs	r0, #1
 523 00de FFF7FEFF 		bl	CyDelay
 524              	.LVL57:
  83:main.c        ****         b4 = int2bin(a%10);
 525              		.loc 1 83 0 discriminator 2
 526 00e2 98F80000 		ldrb	r0, [r8]	@ zero_extendqisi2
 527 00e6 FFF7FEFF 		bl	Control_Reg_2_Write
 528              	.LVL58:
  84:main.c        ****         Control_Reg_1_Write(b4);
 529              		.loc 1 84 0 discriminator 2
 530 00ea 2046     		mov	r0, r4
 531 00ec FFF7FEFF 		bl	int2bin
 532              	.LVL59:
 533 00f0 0E4B     		ldr	r3, .L44+28
 534 00f2 1860     		str	r0, [r3]
ARM GAS  C:\Users\badun\AppData\Local\Temp\ccFP6dWp.s 			page 16


  85:main.c        ****         CyDelay(1); 
 535              		.loc 1 85 0 discriminator 2
 536 00f4 C0B2     		uxtb	r0, r0
 537 00f6 FFF7FEFF 		bl	Control_Reg_1_Write
 538              	.LVL60:
  86:main.c        ****     }
 539              		.loc 1 86 0 discriminator 2
 540 00fa 0120     		movs	r0, #1
 541 00fc FFF7FEFF 		bl	CyDelay
 542              	.LVL61:
  69:main.c        ****         Control_Reg_2_Write(a1);
 543              		.loc 1 69 0 discriminator 2
 544 0100 0137     		adds	r7, r7, #1
 545              	.LVL62:
 546              	.L40:
  69:main.c        ****         Control_Reg_2_Write(a1);
 547              		.loc 1 69 0 is_stmt 0 discriminator 1
 548 0102 F92F     		cmp	r7, #249
 549 0104 82DD     		ble	.L42
 550              	.LBE2:
  88:main.c        ****     
 551              		.loc 1 88 0 is_stmt 1
 552 0106 0F20     		movs	r0, #15
 553 0108 FFF7FEFF 		bl	Control_Reg_2_Write
 554              	.LVL63:
 555 010c BDE8F883 		pop	{r3, r4, r5, r6, r7, r8, r9, pc}
 556              	.LVL64:
 557              	.L45:
 558              		.align	2
 559              	.L44:
 560 0110 AD8BDB68 		.word	1759218605
 561 0114 D34D6210 		.word	274877907
 562 0118 00000000 		.word	b1
 563 011c 1F85EB51 		.word	1374389535
 564 0120 00000000 		.word	b2
 565 0124 67666666 		.word	1717986919
 566 0128 00000000 		.word	b3
 567 012c 00000000 		.word	b4
 568 0130 00000000 		.word	.LANCHOR0
 569              		.cfi_endproc
 570              	.LFE66:
 571              		.size	display, .-display
 572              		.section	.text.startup,"ax",%progbits
 573              		.align	2
 574              		.global	startup
 575              		.thumb
 576              		.thumb_func
 577              		.type	startup, %function
 578              	startup:
 579              	.LFB67:
  91:main.c        ****     Control_Reg_2_Write(a1);
 580              		.loc 1 91 0
 581              		.cfi_startproc
 582              		@ args = 0, pretend = 0, frame = 0
 583              		@ frame_needed = 0, uses_anonymous_args = 0
 584 0000 10B5     		push	{r4, lr}
 585              		.cfi_def_cfa_offset 8
ARM GAS  C:\Users\badun\AppData\Local\Temp\ccFP6dWp.s 			page 17


 586              		.cfi_offset 4, -8
 587              		.cfi_offset 14, -4
  92:main.c        ****     Control_Reg_1_Write(0b00000000);
 588              		.loc 1 92 0
 589 0002 184C     		ldr	r4, .L48
 590 0004 2079     		ldrb	r0, [r4, #4]	@ zero_extendqisi2
 591 0006 FFF7FEFF 		bl	Control_Reg_2_Write
 592              	.LVL65:
  93:main.c        ****     CyDelay(1000);
 593              		.loc 1 93 0
 594 000a 0020     		movs	r0, #0
 595 000c FFF7FEFF 		bl	Control_Reg_1_Write
 596              	.LVL66:
  94:main.c        ****     Control_Reg_2_Write(a2);
 597              		.loc 1 94 0
 598 0010 4FF47A70 		mov	r0, #1000
 599 0014 FFF7FEFF 		bl	CyDelay
 600              	.LVL67:
  95:main.c        ****     Control_Reg_1_Write(0b00000000);
 601              		.loc 1 95 0
 602 0018 207A     		ldrb	r0, [r4, #8]	@ zero_extendqisi2
 603 001a FFF7FEFF 		bl	Control_Reg_2_Write
 604              	.LVL68:
  96:main.c        ****     CyDelay(1000);
 605              		.loc 1 96 0
 606 001e 0020     		movs	r0, #0
 607 0020 FFF7FEFF 		bl	Control_Reg_1_Write
 608              	.LVL69:
  97:main.c        ****     Control_Reg_2_Write(a3);
 609              		.loc 1 97 0
 610 0024 4FF47A70 		mov	r0, #1000
 611 0028 FFF7FEFF 		bl	CyDelay
 612              	.LVL70:
  98:main.c        ****     Control_Reg_1_Write(0b00000000);
 613              		.loc 1 98 0
 614 002c 207B     		ldrb	r0, [r4, #12]	@ zero_extendqisi2
 615 002e FFF7FEFF 		bl	Control_Reg_2_Write
 616              	.LVL71:
  99:main.c        ****     CyDelay(1000);
 617              		.loc 1 99 0
 618 0032 0020     		movs	r0, #0
 619 0034 FFF7FEFF 		bl	Control_Reg_1_Write
 620              	.LVL72:
 100:main.c        ****     Control_Reg_2_Write(a4);
 621              		.loc 1 100 0
 622 0038 4FF47A70 		mov	r0, #1000
 623 003c FFF7FEFF 		bl	CyDelay
 624              	.LVL73:
 101:main.c        ****     Control_Reg_1_Write(0b00000000);
 625              		.loc 1 101 0
 626 0040 2078     		ldrb	r0, [r4]	@ zero_extendqisi2
 627 0042 FFF7FEFF 		bl	Control_Reg_2_Write
 628              	.LVL74:
 102:main.c        ****     CyDelay(1000);
 629              		.loc 1 102 0
 630 0046 0020     		movs	r0, #0
 631 0048 FFF7FEFF 		bl	Control_Reg_1_Write
ARM GAS  C:\Users\badun\AppData\Local\Temp\ccFP6dWp.s 			page 18


 632              	.LVL75:
 103:main.c        ****     
 633              		.loc 1 103 0
 634 004c 4FF47A70 		mov	r0, #1000
 635 0050 FFF7FEFF 		bl	CyDelay
 636              	.LVL76:
 106:main.c        ****     
 637              		.loc 1 106 0
 638 0054 0021     		movs	r1, #0
 639 0056 2069     		ldr	r0, [r4, #16]
 640 0058 FFF7FEFF 		bl	display
 641              	.LVL77:
 108:main.c        ****     
 642              		.loc 1 108 0
 643 005c FFF7FEFF 		bl	display_unit
 644              	.LVL78:
 645 0060 10BD     		pop	{r4, pc}
 646              	.L49:
 647 0062 00BF     		.align	2
 648              	.L48:
 649 0064 00000000 		.word	.LANCHOR0
 650              		.cfi_endproc
 651              	.LFE67:
 652              		.size	startup, .-startup
 653              		.section	.text.startupisr,"ax",%progbits
 654              		.align	2
 655              		.global	startupisr
 656              		.thumb
 657              		.thumb_func
 658              		.type	startupisr, %function
 659              	startupisr:
 660              	.LFB73:
 163:main.c        ****     beep();
 661              		.loc 1 163 0
 662              		.cfi_startproc
 663              		@ args = 0, pretend = 0, frame = 0
 664              		@ frame_needed = 0, uses_anonymous_args = 0
 665 0000 08B5     		push	{r3, lr}
 666              		.cfi_def_cfa_offset 8
 667              		.cfi_offset 3, -8
 668              		.cfi_offset 14, -4
 164:main.c        ****     startup();
 669              		.loc 1 164 0
 670 0002 FFF7FEFF 		bl	beep
 671              	.LVL79:
 165:main.c        **** }
 672              		.loc 1 165 0
 673 0006 FFF7FEFF 		bl	startup
 674              	.LVL80:
 675 000a 08BD     		pop	{r3, pc}
 676              		.cfi_endproc
 677              	.LFE73:
 678              		.size	startupisr, .-startupisr
 679              		.section	.text.main,"ax",%progbits
 680              		.align	2
 681              		.global	main
 682              		.thumb
ARM GAS  C:\Users\badun\AppData\Local\Temp\ccFP6dWp.s 			page 19


 683              		.thumb_func
 684              		.type	main, %function
 685              	main:
 686              	.LFB77:
 187:main.c        ****     CyGlobalIntEnable; /* Enable global interrupts. */
 687              		.loc 1 187 0
 688              		.cfi_startproc
 689              		@ Volatile: function does not return.
 690              		@ args = 0, pretend = 0, frame = 0
 691              		@ frame_needed = 0, uses_anonymous_args = 0
 692 0000 08B5     		push	{r3, lr}
 693              		.cfi_def_cfa_offset 8
 694              		.cfi_offset 3, -8
 695              		.cfi_offset 14, -4
 188:main.c        ****      /* Place your initialization/startup code here (e.g. MyInst_Start()) */
 696              		.loc 1 188 0
 697              		.syntax unified
 698              	@ 188 "main.c" 1
 699 0002 62B6     		CPSIE   i
 700              	@ 0 "" 2
 190:main.c        ****     isr_1_StartEx(timer_handler);
 701              		.loc 1 190 0
 702              		.thumb
 703              		.syntax unified
 704 0004 FFF7FEFF 		bl	isr_1_ClearPending
 705              	.LVL81:
 191:main.c        ****     isr_2_ClearPending();
 706              		.loc 1 191 0
 707 0008 1A48     		ldr	r0, .L55
 708 000a FFF7FEFF 		bl	isr_1_StartEx
 709              	.LVL82:
 192:main.c        ****     isr_2_StartEx(measurehandlerisr);
 710              		.loc 1 192 0
 711 000e FFF7FEFF 		bl	isr_2_ClearPending
 712              	.LVL83:
 193:main.c        ****     isr_3_ClearPending();
 713              		.loc 1 193 0
 714 0012 1948     		ldr	r0, .L55+4
 715 0014 FFF7FEFF 		bl	isr_2_StartEx
 716              	.LVL84:
 194:main.c        ****     isr_3_StartEx(startupisr);
 717              		.loc 1 194 0
 718 0018 FFF7FEFF 		bl	isr_3_ClearPending
 719              	.LVL85:
 195:main.c        ****     isr_4_ClearPending();
 720              		.loc 1 195 0
 721 001c 1748     		ldr	r0, .L55+8
 722 001e FFF7FEFF 		bl	isr_3_StartEx
 723              	.LVL86:
 196:main.c        ****     isr_4_StartEx(convertunitisr);
 724              		.loc 1 196 0
 725 0022 FFF7FEFF 		bl	isr_4_ClearPending
 726              	.LVL87:
 197:main.c        ****     isr_5_ClearPending();
 727              		.loc 1 197 0
 728 0026 1648     		ldr	r0, .L55+12
 729 0028 FFF7FEFF 		bl	isr_4_StartEx
ARM GAS  C:\Users\badun\AppData\Local\Temp\ccFP6dWp.s 			page 20


 730              	.LVL88:
 198:main.c        ****     isr_5_StartEx(increasegroupnoisr);
 731              		.loc 1 198 0
 732 002c FFF7FEFF 		bl	isr_5_ClearPending
 733              	.LVL89:
 199:main.c        ****     isr_6_ClearPending();
 734              		.loc 1 199 0
 735 0030 1448     		ldr	r0, .L55+16
 736 0032 FFF7FEFF 		bl	isr_5_StartEx
 737              	.LVL90:
 200:main.c        ****     isr_6_StartEx(decreasegroupnoisr);
 738              		.loc 1 200 0
 739 0036 FFF7FEFF 		bl	isr_6_ClearPending
 740              	.LVL91:
 201:main.c        ****     
 741              		.loc 1 201 0
 742 003a 1348     		ldr	r0, .L55+20
 743 003c FFF7FEFF 		bl	isr_6_StartEx
 744              	.LVL92:
 203:main.c        ****     Timer_1_Start();        // Start timer
 745              		.loc 1 203 0
 746 0040 FFF7FEFF 		bl	timer_clock_Start
 747              	.LVL93:
 204:main.c        ****     Clock_2_Start();        // Start debouncer clock
 748              		.loc 1 204 0
 749 0044 FFF7FEFF 		bl	Timer_1_Start
 750              	.LVL94:
 205:main.c        ****     Opamp_1_Start();        // Start Opamp
 751              		.loc 1 205 0
 752 0048 FFF7FEFF 		bl	Clock_2_Start
 753              	.LVL95:
 206:main.c        ****     PGA_1_Start();      
 754              		.loc 1 206 0
 755 004c FFF7FEFF 		bl	Opamp_1_Start
 756              	.LVL96:
 207:main.c        ****     Comp_1_Start(); 
 757              		.loc 1 207 0
 758 0050 FFF7FEFF 		bl	PGA_1_Start
 759              	.LVL97:
 208:main.c        ****     Clock_1_Start();        // Produce 40kHz pulse
 760              		.loc 1 208 0
 761 0054 FFF7FEFF 		bl	Comp_1_Start
 762              	.LVL98:
 209:main.c        ****     Count7_1_Start();
 763              		.loc 1 209 0
 764 0058 FFF7FEFF 		bl	Clock_1_Start
 765              	.LVL99:
 210:main.c        ****     UART_1_Start();			 //Start the UART
 766              		.loc 1 210 0
 767 005c FFF7FEFF 		bl	Count7_1_Start
 768              	.LVL100:
 211:main.c        ****     EEPROM_1_Start();
 769              		.loc 1 211 0
 770 0060 FFF7FEFF 		bl	UART_1_Start
 771              	.LVL101:
 212:main.c        ****     
 772              		.loc 1 212 0
ARM GAS  C:\Users\badun\AppData\Local\Temp\ccFP6dWp.s 			page 21


 773 0064 FFF7FEFF 		bl	EEPROM_1_Start
 774              	.LVL102:
 219:main.c        ****     
 775              		.loc 1 219 0
 776 0068 FFF7FEFF 		bl	startup
 777              	.LVL103:
 778              	.L53:
 224:main.c        ****         
 779              		.loc 1 224 0 discriminator 1
 780 006c FFF7FEFF 		bl	sleepmode
 781              	.LVL104:
 782 0070 FCE7     		b	.L53
 783              	.L56:
 784 0072 00BF     		.align	2
 785              	.L55:
 786 0074 00000000 		.word	timer_handler
 787 0078 00000000 		.word	measurehandlerisr
 788 007c 00000000 		.word	startupisr
 789 0080 00000000 		.word	convertunitisr
 790 0084 00000000 		.word	increasegroupnoisr
 791 0088 00000000 		.word	decreasegroupnoisr
 792              		.cfi_endproc
 793              	.LFE77:
 794              		.size	main, .-main
 795              		.global	__aeabi_i2f
 796              		.global	__aeabi_f2iz
 797              		.section	.text.measurehandlerisr,"ax",%progbits
 798              		.align	2
 799              		.global	measurehandlerisr
 800              		.thumb
 801              		.thumb_func
 802              		.type	measurehandlerisr, %function
 803              	measurehandlerisr:
 804              	.LFB72:
 144:main.c        ****     
 805              		.loc 1 144 0
 806              		.cfi_startproc
 807              		@ args = 0, pretend = 0, frame = 0
 808              		@ frame_needed = 0, uses_anonymous_args = 0
 809 0000 38B5     		push	{r3, r4, r5, lr}
 810              		.cfi_def_cfa_offset 16
 811              		.cfi_offset 3, -16
 812              		.cfi_offset 4, -12
 813              		.cfi_offset 5, -8
 814              		.cfi_offset 14, -4
 146:main.c        ****     
 815              		.loc 1 146 0
 816 0002 FFF7FEFF 		bl	beep
 817              	.LVL105:
 148:main.c        ****     if(EEPROM_1_ReadByte(IS_METRIC_BYTE)){        
 818              		.loc 1 148 0
 819 0006 FFF7FEFF 		bl	sendPulse
 820              	.LVL106:
 149:main.c        ****         dist = counter2*34 ;
 821              		.loc 1 149 0
 822 000a 4FF48060 		mov	r0, #1024
 823 000e FFF7FEFF 		bl	EEPROM_1_ReadByte
ARM GAS  C:\Users\badun\AppData\Local\Temp\ccFP6dWp.s 			page 22


 824              	.LVL107:
 825 0012 38B1     		cbz	r0, .L58
 150:main.c        ****         
 826              		.loc 1 150 0
 827 0014 114B     		ldr	r3, .L61
 828 0016 1B88     		ldrh	r3, [r3]
 829 0018 03EB0313 		add	r3, r3, r3, lsl #4
 830 001c 5B00     		lsls	r3, r3, #1
 831 001e 104A     		ldr	r2, .L61+4
 832 0020 1360     		str	r3, [r2]
 833 0022 0CE0     		b	.L59
 834              	.L58:
 154:main.c        ****         dist = cm2Inch(dist);
 835              		.loc 1 154 0
 836 0024 0D4B     		ldr	r3, .L61
 837 0026 1888     		ldrh	r0, [r3]
 838 0028 00EB0010 		add	r0, r0, r0, lsl #4
 155:main.c        ****     }
 839              		.loc 1 155 0
 840 002c 4000     		lsls	r0, r0, #1
 841 002e FFF7FEFF 		bl	__aeabi_i2f
 842              	.LVL108:
 843 0032 FFF7FEFF 		bl	cm2Inch
 844              	.LVL109:
 845 0036 FFF7FEFF 		bl	__aeabi_f2iz
 846              	.LVL110:
 847 003a 094B     		ldr	r3, .L61+4
 848 003c 1860     		str	r0, [r3]
 849              	.L59:
 157:main.c        ****         
 850              		.loc 1 157 0
 851 003e 084D     		ldr	r5, .L61+4
 852 0040 0121     		movs	r1, #1
 853 0042 2868     		ldr	r0, [r5]
 854 0044 FFF7FEFF 		bl	display
 855              	.LVL111:
 159:main.c        ****     UART_1_PutString(tmpStr1); 
 856              		.loc 1 159 0
 857 0048 064C     		ldr	r4, .L61+8
 858 004a 2A68     		ldr	r2, [r5]
 859 004c 0649     		ldr	r1, .L61+12
 860 004e 2046     		mov	r0, r4
 861 0050 FFF7FEFF 		bl	sprintf
 862              	.LVL112:
 160:main.c        **** }
 863              		.loc 1 160 0
 864 0054 2046     		mov	r0, r4
 865 0056 FFF7FEFF 		bl	UART_1_PutString
 866              	.LVL113:
 867 005a 38BD     		pop	{r3, r4, r5, pc}
 868              	.L62:
 869              		.align	2
 870              	.L61:
 871 005c 00000000 		.word	counter2
 872 0060 00000000 		.word	dist
 873 0064 00000000 		.word	tmpStr1
 874 0068 00000000 		.word	.LC0
ARM GAS  C:\Users\badun\AppData\Local\Temp\ccFP6dWp.s 			page 23


 875              		.cfi_endproc
 876              	.LFE72:
 877              		.size	measurehandlerisr, .-measurehandlerisr
 878              		.section	.text.increasegroupnoisr,"ax",%progbits
 879              		.align	2
 880              		.global	increasegroupnoisr
 881              		.thumb
 882              		.thumb_func
 883              		.type	increasegroupnoisr, %function
 884              	increasegroupnoisr:
 885              	.LFB75:
 175:main.c        ****     beep();
 886              		.loc 1 175 0
 887              		.cfi_startproc
 888              		@ args = 0, pretend = 0, frame = 0
 889              		@ frame_needed = 0, uses_anonymous_args = 0
 890 0000 08B5     		push	{r3, lr}
 891              		.cfi_def_cfa_offset 8
 892              		.cfi_offset 3, -8
 893              		.cfi_offset 14, -4
 176:main.c        ****     group_no++;
 894              		.loc 1 176 0
 895 0002 FFF7FEFF 		bl	beep
 896              	.LVL114:
 177:main.c        ****     display(group_no,0);
 897              		.loc 1 177 0
 898 0006 044B     		ldr	r3, .L65
 899 0008 1869     		ldr	r0, [r3, #16]
 900 000a 0130     		adds	r0, r0, #1
 901 000c 1861     		str	r0, [r3, #16]
 178:main.c        **** }
 902              		.loc 1 178 0
 903 000e 0021     		movs	r1, #0
 904 0010 FFF7FEFF 		bl	display
 905              	.LVL115:
 906 0014 08BD     		pop	{r3, pc}
 907              	.L66:
 908 0016 00BF     		.align	2
 909              	.L65:
 910 0018 00000000 		.word	.LANCHOR0
 911              		.cfi_endproc
 912              	.LFE75:
 913              		.size	increasegroupnoisr, .-increasegroupnoisr
 914              		.section	.text.decreasegroupnoisr,"ax",%progbits
 915              		.align	2
 916              		.global	decreasegroupnoisr
 917              		.thumb
 918              		.thumb_func
 919              		.type	decreasegroupnoisr, %function
 920              	decreasegroupnoisr:
 921              	.LFB76:
 181:main.c        ****     beep();
 922              		.loc 1 181 0
 923              		.cfi_startproc
 924              		@ args = 0, pretend = 0, frame = 0
 925              		@ frame_needed = 0, uses_anonymous_args = 0
 926 0000 08B5     		push	{r3, lr}
ARM GAS  C:\Users\badun\AppData\Local\Temp\ccFP6dWp.s 			page 24


 927              		.cfi_def_cfa_offset 8
 928              		.cfi_offset 3, -8
 929              		.cfi_offset 14, -4
 182:main.c        ****     group_no = group_no -1;
 930              		.loc 1 182 0
 931 0002 FFF7FEFF 		bl	beep
 932              	.LVL116:
 183:main.c        ****     display(group_no,0);
 933              		.loc 1 183 0
 934 0006 044B     		ldr	r3, .L69
 935 0008 1869     		ldr	r0, [r3, #16]
 936 000a 0138     		subs	r0, r0, #1
 937 000c 1861     		str	r0, [r3, #16]
 184:main.c        **** }
 938              		.loc 1 184 0
 939 000e 0021     		movs	r1, #0
 940 0010 FFF7FEFF 		bl	display
 941              	.LVL117:
 942 0014 08BD     		pop	{r3, pc}
 943              	.L70:
 944 0016 00BF     		.align	2
 945              	.L69:
 946 0018 00000000 		.word	.LANCHOR0
 947              		.cfi_endproc
 948              	.LFE76:
 949              		.size	decreasegroupnoisr, .-decreasegroupnoisr
 950              		.comm	counter,2,2
 951              		.comm	counter2,2,2
 952              		.comm	counter1,2,2
 953              		.comm	tmpStr1,30,4
 954              		.comm	tmpStr,30,4
 955              		.comm	adcVolts,4,4
 956              		.comm	adcResult,1,1
 957              		.comm	dist,4,4
 958              		.global	group_no
 959              		.comm	b4,4,4
 960              		.comm	b3,4,4
 961              		.comm	b2,4,4
 962              		.comm	b1,4,4
 963              		.global	a4
 964              		.global	a3
 965              		.global	a2
 966              		.global	a1
 967              		.data
 968              		.align	2
 969              		.set	.LANCHOR0,. + 0
 970              		.type	a4, %object
 971              		.size	a4, 4
 972              	a4:
 973 0000 07000000 		.word	7
 974              		.type	a1, %object
 975              		.size	a1, 4
 976              	a1:
 977 0004 0E000000 		.word	14
 978              		.type	a2, %object
 979              		.size	a2, 4
 980              	a2:
ARM GAS  C:\Users\badun\AppData\Local\Temp\ccFP6dWp.s 			page 25


 981 0008 0D000000 		.word	13
 982              		.type	a3, %object
 983              		.size	a3, 4
 984              	a3:
 985 000c 0B000000 		.word	11
 986              		.type	group_no, %object
 987              		.size	group_no, 4
 988              	group_no:
 989 0010 87000000 		.word	135
 990              		.section	.rodata.str1.4,"aMS",%progbits,1
 991              		.align	2
 992              	.LC0:
 993 0000 20646973 		.ascii	" dist %d  \012\000"
 993      74202564 
 993      20200A00 
 994              		.text
 995              	.Letext0:
 996              		.file 2 "f:\\psoc\\psoc creator\\4.4\\psoc creator\\import\\gnu\\arm\\5.4.1\\arm-none-eabi\\includ
 997              		.file 3 "f:\\psoc\\psoc creator\\4.4\\psoc creator\\import\\gnu\\arm\\5.4.1\\arm-none-eabi\\includ
 998              		.file 4 "Generated_Source\\PSoC5/cytypes.h"
 999              		.file 5 "Generated_Source\\PSoC5/core_cm3.h"
 1000              		.file 6 "Generated_Source\\PSoC5/Timer_1.h"
 1001              		.file 7 "Generated_Source\\PSoC5/Control_Reg_3.h"
 1002              		.file 8 "Generated_Source\\PSoC5/Timer_Reset.h"
 1003              		.file 9 "Generated_Source\\PSoC5/EEPROM_1.h"
 1004              		.file 10 "Generated_Source\\PSoC5/Control_Reg_2.h"
 1005              		.file 11 "Generated_Source\\PSoC5/Control_Reg_1.h"
 1006              		.file 12 "Generated_Source\\PSoC5/CyLib.h"
 1007              		.file 13 "Generated_Source\\PSoC5/beeperpin.h"
 1008              		.file 14 "Generated_Source\\PSoC5/isr_1.h"
 1009              		.file 15 "Generated_Source\\PSoC5/isr_2.h"
 1010              		.file 16 "Generated_Source\\PSoC5/isr_3.h"
 1011              		.file 17 "Generated_Source\\PSoC5/isr_4.h"
 1012              		.file 18 "Generated_Source\\PSoC5/isr_5.h"
 1013              		.file 19 "Generated_Source\\PSoC5/isr_6.h"
 1014              		.file 20 "Generated_Source\\PSoC5/timer_clock.h"
 1015              		.file 21 "Generated_Source\\PSoC5/Clock_2.h"
 1016              		.file 22 "Generated_Source\\PSoC5/Opamp_1.h"
 1017              		.file 23 "Generated_Source\\PSoC5/PGA_1.h"
 1018              		.file 24 "Generated_Source\\PSoC5/Comp_1.h"
 1019              		.file 25 "Generated_Source\\PSoC5/Clock_1.h"
 1020              		.file 26 "Generated_Source\\PSoC5/Count7_1.h"
 1021              		.file 27 "Generated_Source\\PSoC5/UART_1.h"
 1022              		.file 28 "f:\\psoc\\psoc creator\\4.4\\psoc creator\\import\\gnu\\arm\\5.4.1\\arm-none-eabi\\inclu